target datalayout = "e-m:e-p270:32:32-p271:32:32-p272:64:64-i64:64-i128:128-f80:128-n8:16:32:64-S128"
target triple = "x86_64-pc-linux-gnu"

; Function Attrs: mustprogress nounwind uwtable
define noundef i64 @_ZN6casadi7bvec_orEPKyx(ptr noundef %0, i64 noundef %1) #5 {
  %3 = alloca i64, align 8
  %4 = alloca ptr, align 8
  %5 = alloca i64, align 8
  %6 = alloca i64, align 8
  %7 = alloca i32, align 4
  %8 = alloca i64, align 8
  store ptr %0, ptr %4, align 8, !tbaa !47
  store i64 %1, ptr %5, align 8, !tbaa !3
  call void @llvm.lifetime.start.p0(i64 8, ptr %6) #3
  store i64 0, ptr %6, align 8, !tbaa !3
  %9 = load i64, ptr %5, align 8, !tbaa !3
  %10 = icmp eq i64 %9, 0
  br i1 %10, label %11, label %14

11:                                               ; preds = %2
  %12 = load i64, ptr %6, align 8, !tbaa !3
  %13 = xor i64 %12, -1
  store i64 %13, ptr %3, align 8
  store i32 1, ptr %7, align 4
  br label %32

14:                                               ; preds = %2
  call void @llvm.lifetime.start.p0(i64 8, ptr %8) #3
  store i64 0, ptr %8, align 8, !tbaa !3
  br label %15

15:                                               ; preds = %27, %14
  %16 = load i64, ptr %8, align 8, !tbaa !3
  %17 = load i64, ptr %5, align 8, !tbaa !3
  %18 = icmp slt i64 %16, %17
  br i1 %18, label %20, label %19

19:                                               ; preds = %15
  store i32 2, ptr %7, align 4
  call void @llvm.lifetime.end.p0(i64 8, ptr %8) #3
  br label %30

20:                                               ; preds = %15
  %21 = load ptr, ptr %4, align 8, !tbaa !47
  %22 = load i64, ptr %8, align 8, !tbaa !3
  %23 = getelementptr inbounds i64, ptr %21, i64 %22
  %24 = load i64, ptr %23, align 8, !tbaa !3
  %25 = load i64, ptr %6, align 8, !tbaa !3
  %26 = or i64 %25, %24
  store i64 %26, ptr %6, align 8, !tbaa !3
  br label %27

27:                                               ; preds = %20
  %28 = load i64, ptr %8, align 8, !tbaa !3
  %29 = add nsw i64 %28, 1
  store i64 %29, ptr %8, align 8, !tbaa !3
  br label %15, !llvm.loop !150

30:                                               ; preds = %19
  %31 = load i64, ptr %6, align 8, !tbaa !3
  store i64 %31, ptr %3, align 8
  store i32 1, ptr %7, align 4
  br label %32

32:                                               ; preds = %30, %11
  call void @llvm.lifetime.end.p0(i64 8, ptr %6) #3
  %33 = load i64, ptr %3, align 8
  ret i64 %33
}