; Function Attrs: mustprogress nofree norecurse nosync nounwind willreturn memory(argmem: read) uwtable
define noundef i64 @_ZN6casadi7bvec_orEPKyx(ptr noundef readonly captures(none) %0, i64 noundef %1) local_unnamed_addr #12 {
  %3 = icmp eq i64 %1, 0
  br i1 %3, label %.loopexit, label %.preheader

.preheader:                                       ; preds = %2
  %4 = icmp sgt i64 %1, 0
  br i1 %4, label %.lr.ph, label %.loopexit

.lr.ph:                                           ; preds = %.preheader, %.lr.ph
  %.013 = phi i64 [ %8, %.lr.ph ], [ 0, %.preheader ]
  %.0912 = phi i64 [ %7, %.lr.ph ], [ 0, %.preheader ]
  %5 = getelementptr inbounds nuw i64, ptr %0, i64 %.013
  %6 = load i64, ptr %5, align 8, !tbaa !40
  %7 = or i64 %6, %.0912
  %8 = add nuw nsw i64 %.013, 1
  %exitcond.not = icmp eq i64 %8, %1
  br i1 %exitcond.not, label %.loopexit, label %.lr.ph, !llvm.loop !173

.loopexit:                                        ; preds = %.lr.ph, %.preheader, %2
  %.010 = phi i64 [ -1, %2 ], [ 0, %.preheader ], [ %7, %.lr.ph ]
  ret i64 %.010
}